; Listing generated by Microsoft (R) Optimizing Compiler Version 19.11.25547.0 

	TITLE	C:\Users\bewew\Desktop\c\Assignment5\Asm5Programs\switch_enum1.c
	.686P
	.XMM
	include listing.inc
	.model	flat

INCLUDELIB LIBCMT
INCLUDELIB OLDNAMES

PUBLIC	_main
; Function compile flags: /Odtp
; File c:\users\bewew\desktop\c\assignment5\asm5programs\switch_enum1.c
_TEXT	SEGMENT
_day$ = -12						; size = 4
tv64 = -8						; size = 4
_i$ = -4						; size = 4
_main	PROC

; 12   : {

  00000	55		 push	 ebp
  00001	8b ec		 mov	 ebp, esp
  00003	83 ec 0c	 sub	 esp, 12			; 0000000cH

; 13   :   enum week day = Monday;

  00006	c7 45 f4 01 00
	00 00		 mov	 DWORD PTR _day$[ebp], 1

; 14   :   int i;
; 15   : 
; 16   :   switch (day) {

  0000d	8b 45 f4	 mov	 eax, DWORD PTR _day$[ebp]
  00010	89 45 f8	 mov	 DWORD PTR tv64[ebp], eax
  00013	83 7d f8 03	 cmp	 DWORD PTR tv64[ebp], 3
  00017	74 13		 je	 SHORT $LN5@main
  00019	83 7d f8 05	 cmp	 DWORD PTR tv64[ebp], 5
  0001d	74 02		 je	 SHORT $LN4@main
  0001f	eb 16		 jmp	 SHORT $LN6@main
$LN4@main:

; 17   :    case Friday:
; 18   :      i += 7;

  00021	8b 4d fc	 mov	 ecx, DWORD PTR _i$[ebp]
  00024	83 c1 07	 add	 ecx, 7
  00027	89 4d fc	 mov	 DWORD PTR _i$[ebp], ecx

; 19   :      break;

  0002a	eb 14		 jmp	 SHORT $LN1@main
$LN5@main:

; 20   :    case Wednesday:
; 21   :      i += 5;

  0002c	8b 55 fc	 mov	 edx, DWORD PTR _i$[ebp]
  0002f	83 c2 05	 add	 edx, 5
  00032	89 55 fc	 mov	 DWORD PTR _i$[ebp], edx

; 22   :      break;

  00035	eb 09		 jmp	 SHORT $LN1@main
$LN6@main:

; 23   :    default: 
; 24   :      i += 9;

  00037	8b 45 fc	 mov	 eax, DWORD PTR _i$[ebp]
  0003a	83 c0 09	 add	 eax, 9
  0003d	89 45 fc	 mov	 DWORD PTR _i$[ebp], eax
$LN1@main:

; 25   :   }
; 26   : }

  00040	33 c0		 xor	 eax, eax
  00042	8b e5		 mov	 esp, ebp
  00044	5d		 pop	 ebp
  00045	c3		 ret	 0
_main	ENDP
_TEXT	ENDS
END
