; Listing generated by Microsoft (R) Optimizing Compiler Version 19.11.25547.0 

	TITLE	C:\Users\bewew\Desktop\c\Assignment5\Asm5Programs\switch_int2.c
	.686P
	.XMM
	include listing.inc
	.model	flat

INCLUDELIB LIBCMT
INCLUDELIB OLDNAMES

PUBLIC	_main
; Function compile flags: /Odtp
; File c:\users\bewew\desktop\c\assignment5\asm5programs\switch_int2.c
_TEXT	SEGMENT
_x$ = -12						; size = 4
tv64 = -8						; size = 4
_i$ = -4						; size = 4
_main	PROC

; 1    : void main() {

  00000	55		 push	 ebp
  00001	8b ec		 mov	 ebp, esp
  00003	83 ec 0c	 sub	 esp, 12			; 0000000cH

; 2    :   int x = 4;

  00006	c7 45 f4 04 00
	00 00		 mov	 DWORD PTR _x$[ebp], 4

; 3    :   int i;
; 4    : 
; 5    :   switch (x) {

  0000d	8b 45 f4	 mov	 eax, DWORD PTR _x$[ebp]
  00010	89 45 f8	 mov	 DWORD PTR tv64[ebp], eax
  00013	8b 4d f8	 mov	 ecx, DWORD PTR tv64[ebp]
  00016	83 c1 04	 add	 ecx, 4
  00019	89 4d f8	 mov	 DWORD PTR tv64[ebp], ecx
  0001c	83 7d f8 36	 cmp	 DWORD PTR tv64[ebp], 54	; 00000036H
  00020	77 48		 ja	 SHORT $LN9@main
  00022	8b 55 f8	 mov	 edx, DWORD PTR tv64[ebp]
  00025	0f b6 82 00 00
	00 00		 movzx	 eax, BYTE PTR $LN11@main[edx]
  0002c	ff 24 85 00 00
	00 00		 jmp	 DWORD PTR $LN12@main[eax*4]
$LN4@main:

; 6    :    case 10:
; 7    :      i += 10;

  00033	8b 4d fc	 mov	 ecx, DWORD PTR _i$[ebp]
  00036	83 c1 0a	 add	 ecx, 10			; 0000000aH
  00039	89 4d fc	 mov	 DWORD PTR _i$[ebp], ecx

; 8    :      break;

  0003c	eb 35		 jmp	 SHORT $LN1@main
$LN5@main:

; 9    :    case 18:
; 10   :      i += 18;

  0003e	8b 55 fc	 mov	 edx, DWORD PTR _i$[ebp]
  00041	83 c2 12	 add	 edx, 18			; 00000012H
  00044	89 55 fc	 mov	 DWORD PTR _i$[ebp], edx

; 11   :      break;

  00047	eb 2a		 jmp	 SHORT $LN1@main
$LN6@main:

; 12   :    case 3:
; 13   :      i += 3;

  00049	8b 45 fc	 mov	 eax, DWORD PTR _i$[ebp]
  0004c	83 c0 03	 add	 eax, 3
  0004f	89 45 fc	 mov	 DWORD PTR _i$[ebp], eax

; 14   :      break;

  00052	eb 1f		 jmp	 SHORT $LN1@main
$LN7@main:

; 15   :    case -4:
; 16   :      i -= 4;

  00054	8b 4d fc	 mov	 ecx, DWORD PTR _i$[ebp]
  00057	83 e9 04	 sub	 ecx, 4
  0005a	89 4d fc	 mov	 DWORD PTR _i$[ebp], ecx

; 17   :      break;

  0005d	eb 14		 jmp	 SHORT $LN1@main
$LN8@main:

; 18   :    case 50:
; 19   :      i += 50;

  0005f	8b 55 fc	 mov	 edx, DWORD PTR _i$[ebp]
  00062	83 c2 32	 add	 edx, 50			; 00000032H
  00065	89 55 fc	 mov	 DWORD PTR _i$[ebp], edx

; 20   :      break;

  00068	eb 09		 jmp	 SHORT $LN1@main
$LN9@main:

; 21   :    default:
; 22   :      i += 1;

  0006a	8b 45 fc	 mov	 eax, DWORD PTR _i$[ebp]
  0006d	83 c0 01	 add	 eax, 1
  00070	89 45 fc	 mov	 DWORD PTR _i$[ebp], eax
$LN1@main:

; 23   :   }
; 24   : }

  00073	33 c0		 xor	 eax, eax
  00075	8b e5		 mov	 esp, ebp
  00077	5d		 pop	 ebp
  00078	c3		 ret	 0
  00079	0f 1f 00	 npad	 3
$LN12@main:
  0007c	00 00 00 00	 DD	 $LN7@main
  00080	00 00 00 00	 DD	 $LN6@main
  00084	00 00 00 00	 DD	 $LN4@main
  00088	00 00 00 00	 DD	 $LN5@main
  0008c	00 00 00 00	 DD	 $LN8@main
  00090	00 00 00 00	 DD	 $LN9@main
$LN11@main:
  00094	00		 DB	 0
  00095	05		 DB	 5
  00096	05		 DB	 5
  00097	05		 DB	 5
  00098	05		 DB	 5
  00099	05		 DB	 5
  0009a	05		 DB	 5
  0009b	01		 DB	 1
  0009c	05		 DB	 5
  0009d	05		 DB	 5
  0009e	05		 DB	 5
  0009f	05		 DB	 5
  000a0	05		 DB	 5
  000a1	05		 DB	 5
  000a2	02		 DB	 2
  000a3	05		 DB	 5
  000a4	05		 DB	 5
  000a5	05		 DB	 5
  000a6	05		 DB	 5
  000a7	05		 DB	 5
  000a8	05		 DB	 5
  000a9	05		 DB	 5
  000aa	03		 DB	 3
  000ab	05		 DB	 5
  000ac	05		 DB	 5
  000ad	05		 DB	 5
  000ae	05		 DB	 5
  000af	05		 DB	 5
  000b0	05		 DB	 5
  000b1	05		 DB	 5
  000b2	05		 DB	 5
  000b3	05		 DB	 5
  000b4	05		 DB	 5
  000b5	05		 DB	 5
  000b6	05		 DB	 5
  000b7	05		 DB	 5
  000b8	05		 DB	 5
  000b9	05		 DB	 5
  000ba	05		 DB	 5
  000bb	05		 DB	 5
  000bc	05		 DB	 5
  000bd	05		 DB	 5
  000be	05		 DB	 5
  000bf	05		 DB	 5
  000c0	05		 DB	 5
  000c1	05		 DB	 5
  000c2	05		 DB	 5
  000c3	05		 DB	 5
  000c4	05		 DB	 5
  000c5	05		 DB	 5
  000c6	05		 DB	 5
  000c7	05		 DB	 5
  000c8	05		 DB	 5
  000c9	05		 DB	 5
  000ca	04		 DB	 4
_main	ENDP
_TEXT	ENDS
END
