; Listing generated by Microsoft (R) Optimizing Compiler Version 19.11.25547.0 

	TITLE	C:\Users\bewew\Desktop\c\Assignment5\Asm5Programs\switch_enum2.c
	.686P
	.XMM
	include listing.inc
	.model	flat

INCLUDELIB LIBCMT
INCLUDELIB OLDNAMES

PUBLIC	_main
; Function compile flags: /Odtp
; File c:\users\bewew\desktop\c\assignment5\asm5programs\switch_enum2.c
_TEXT	SEGMENT
_day$ = -12						; size = 4
tv64 = -8						; size = 4
_i$ = -4						; size = 4
_main	PROC

; 12   : {

  00000	55		 push	 ebp
  00001	8b ec		 mov	 ebp, esp
  00003	83 ec 0c	 sub	 esp, 12			; 0000000cH

; 13   :   enum week day = Monday;

  00006	c7 45 f4 01 00
	00 00		 mov	 DWORD PTR _day$[ebp], 1

; 14   :   int i;
; 15   : 
; 16   :   switch (day) {

  0000d	8b 45 f4	 mov	 eax, DWORD PTR _day$[ebp]
  00010	89 45 f8	 mov	 DWORD PTR tv64[ebp], eax
  00013	8b 4d f8	 mov	 ecx, DWORD PTR tv64[ebp]
  00016	83 e9 01	 sub	 ecx, 1
  00019	89 4d f8	 mov	 DWORD PTR tv64[ebp], ecx
  0001c	83 7d f8 05	 cmp	 DWORD PTR tv64[ebp], 5
  00020	77 41		 ja	 SHORT $LN9@main
  00022	8b 55 f8	 mov	 edx, DWORD PTR tv64[ebp]
  00025	ff 24 95 00 00
	00 00		 jmp	 DWORD PTR $LN11@main[edx*4]
$LN4@main:

; 17   :    case Wednesday:
; 18   :      i += 5;

  0002c	8b 45 fc	 mov	 eax, DWORD PTR _i$[ebp]
  0002f	83 c0 05	 add	 eax, 5
  00032	89 45 fc	 mov	 DWORD PTR _i$[ebp], eax

; 19   :      break;

  00035	eb 35		 jmp	 SHORT $LN1@main
$LN5@main:

; 20   :    case Monday: 
; 21   :      i += 3;

  00037	8b 4d fc	 mov	 ecx, DWORD PTR _i$[ebp]
  0003a	83 c1 03	 add	 ecx, 3
  0003d	89 4d fc	 mov	 DWORD PTR _i$[ebp], ecx

; 22   :      break;

  00040	eb 2a		 jmp	 SHORT $LN1@main
$LN6@main:

; 23   :    case Friday:
; 24   :      i += 7;

  00042	8b 55 fc	 mov	 edx, DWORD PTR _i$[ebp]
  00045	83 c2 07	 add	 edx, 7
  00048	89 55 fc	 mov	 DWORD PTR _i$[ebp], edx

; 25   :      break;

  0004b	eb 1f		 jmp	 SHORT $LN1@main
$LN7@main:

; 26   :    case Saturday:
; 27   :      i += 8;

  0004d	8b 45 fc	 mov	 eax, DWORD PTR _i$[ebp]
  00050	83 c0 08	 add	 eax, 8
  00053	89 45 fc	 mov	 DWORD PTR _i$[ebp], eax

; 28   :      break;

  00056	eb 14		 jmp	 SHORT $LN1@main
$LN8@main:

; 29   :    case Tuesday:
; 30   :      i += 4;

  00058	8b 4d fc	 mov	 ecx, DWORD PTR _i$[ebp]
  0005b	83 c1 04	 add	 ecx, 4
  0005e	89 4d fc	 mov	 DWORD PTR _i$[ebp], ecx

; 31   :      break;

  00061	eb 09		 jmp	 SHORT $LN1@main
$LN9@main:

; 32   :    default: 
; 33   :      i += 9;

  00063	8b 55 fc	 mov	 edx, DWORD PTR _i$[ebp]
  00066	83 c2 09	 add	 edx, 9
  00069	89 55 fc	 mov	 DWORD PTR _i$[ebp], edx
$LN1@main:

; 34   :   }
; 35   : }

  0006c	33 c0		 xor	 eax, eax
  0006e	8b e5		 mov	 esp, ebp
  00070	5d		 pop	 ebp
  00071	c3		 ret	 0
  00072	66 90		 npad	 2
$LN11@main:
  00074	00 00 00 00	 DD	 $LN5@main
  00078	00 00 00 00	 DD	 $LN8@main
  0007c	00 00 00 00	 DD	 $LN4@main
  00080	00 00 00 00	 DD	 $LN9@main
  00084	00 00 00 00	 DD	 $LN6@main
  00088	00 00 00 00	 DD	 $LN7@main
_main	ENDP
_TEXT	ENDS
END
