; Listing generated by Microsoft (R) Optimizing Compiler Version 19.11.25547.0 

	TITLE	C:\Users\bewew\Desktop\c\Assignment5\Asm5Programs\switch_int1.c
	.686P
	.XMM
	include listing.inc
	.model	flat

INCLUDELIB LIBCMT
INCLUDELIB OLDNAMES

PUBLIC	_main
; Function compile flags: /Odtp
; File c:\users\bewew\desktop\c\assignment5\asm5programs\switch_int1.c
_TEXT	SEGMENT
_x$ = -12						; size = 4
tv64 = -8						; size = 4
_i$ = -4						; size = 4
_main	PROC

; 1    : void main() {

  00000	55		 push	 ebp
  00001	8b ec		 mov	 ebp, esp
  00003	83 ec 0c	 sub	 esp, 12			; 0000000cH

; 2    :   int x = 4;

  00006	c7 45 f4 04 00
	00 00		 mov	 DWORD PTR _x$[ebp], 4

; 3    :   int i;
; 4    : 
; 5    :   switch (x) {

  0000d	8b 45 f4	 mov	 eax, DWORD PTR _x$[ebp]
  00010	89 45 f8	 mov	 DWORD PTR tv64[ebp], eax
  00013	83 7d f8 fc	 cmp	 DWORD PTR tv64[ebp], -4	; fffffffcH
  00017	74 19		 je	 SHORT $LN5@main
  00019	83 7d f8 03	 cmp	 DWORD PTR tv64[ebp], 3
  0001d	74 08		 je	 SHORT $LN4@main
  0001f	83 7d f8 32	 cmp	 DWORD PTR tv64[ebp], 50	; 00000032H
  00023	74 18		 je	 SHORT $LN6@main
  00025	eb 21		 jmp	 SHORT $LN7@main
$LN4@main:

; 6    :    case 3:
; 7    :      i += 3;

  00027	8b 4d fc	 mov	 ecx, DWORD PTR _i$[ebp]
  0002a	83 c1 03	 add	 ecx, 3
  0002d	89 4d fc	 mov	 DWORD PTR _i$[ebp], ecx

; 8    :      break;

  00030	eb 1f		 jmp	 SHORT $LN1@main
$LN5@main:

; 9    :    case -4:
; 10   :      i -= 4;

  00032	8b 55 fc	 mov	 edx, DWORD PTR _i$[ebp]
  00035	83 ea 04	 sub	 edx, 4
  00038	89 55 fc	 mov	 DWORD PTR _i$[ebp], edx

; 11   :      break;

  0003b	eb 14		 jmp	 SHORT $LN1@main
$LN6@main:

; 12   :    case 50:
; 13   :      i += 50;

  0003d	8b 45 fc	 mov	 eax, DWORD PTR _i$[ebp]
  00040	83 c0 32	 add	 eax, 50			; 00000032H
  00043	89 45 fc	 mov	 DWORD PTR _i$[ebp], eax

; 14   :      break;

  00046	eb 09		 jmp	 SHORT $LN1@main
$LN7@main:

; 15   :    default:
; 16   :      i += 1;

  00048	8b 4d fc	 mov	 ecx, DWORD PTR _i$[ebp]
  0004b	83 c1 01	 add	 ecx, 1
  0004e	89 4d fc	 mov	 DWORD PTR _i$[ebp], ecx
$LN1@main:

; 17   :   }
; 18   : }

  00051	33 c0		 xor	 eax, eax
  00053	8b e5		 mov	 esp, ebp
  00055	5d		 pop	 ebp
  00056	c3		 ret	 0
_main	ENDP
_TEXT	ENDS
END
