; Listing generated by Microsoft (R) Optimizing Compiler Version 19.12.25834.0 

	TITLE	c:\K-State\cis450\Programs\MMProj\destructive_regs\destructive_regs.c
	.686P
	.XMM
	include listing.inc
	.model	flat

INCLUDELIB LIBCMT
INCLUDELIB OLDNAMES

_DATA	SEGMENT
$SG7336	DB	'%d', 09H, '%d', 09H, '%d', 09H, '%d', 0aH, 00H
_DATA	ENDS
PUBLIC	___local_stdio_printf_options
PUBLIC	__vfprintf_l
PUBLIC	_printf
PUBLIC	_main
EXTRN	___acrt_iob_func:PROC
EXTRN	___stdio_common_vfprintf:PROC
_DATA	SEGMENT
COMM	?_OptionsStorage@?1??__local_stdio_printf_options@@9@9:QWORD							; `__local_stdio_printf_options'::`2'::_OptionsStorage
_DATA	ENDS
; Function compile flags: /Odtp
; File c:\k-state\cis450\programs\mmproj\destructive_regs\destructive_regs.c
_TEXT	SEGMENT
_l$ = -16						; size = 4
_i$ = -12						; size = 4
_j$ = -8						; size = 4
_k$ = -4						; size = 4
_main	PROC

; 3    : void main() {

  00000	55		 push	 ebp
  00001	8b ec		 mov	 ebp, esp
  00003	83 ec 10	 sub	 esp, 16			; 00000010H

; 4    :   register int i, j, k, l;
; 5    : 
; 6    :   i = 34;

  00006	c7 45 f4 22 00
	00 00		 mov	 DWORD PTR _i$[ebp], 34	; 00000022H

; 7    :   j = i + 2;

  0000d	8b 45 f4	 mov	 eax, DWORD PTR _i$[ebp]
  00010	83 c0 02	 add	 eax, 2
  00013	89 45 f8	 mov	 DWORD PTR _j$[ebp], eax

; 8    :   k = j + 3;

  00016	8b 4d f8	 mov	 ecx, DWORD PTR _j$[ebp]
  00019	83 c1 03	 add	 ecx, 3
  0001c	89 4d fc	 mov	 DWORD PTR _k$[ebp], ecx

; 9    :   l = k + 4;

  0001f	8b 55 fc	 mov	 edx, DWORD PTR _k$[ebp]
  00022	83 c2 04	 add	 edx, 4
  00025	89 55 f0	 mov	 DWORD PTR _l$[ebp], edx

; 10   : 
; 11   :   printf("%d\t%d\t%d\t%d\n", i, j, k, l);

  00028	8b 45 f0	 mov	 eax, DWORD PTR _l$[ebp]
  0002b	50		 push	 eax
  0002c	8b 4d fc	 mov	 ecx, DWORD PTR _k$[ebp]
  0002f	51		 push	 ecx
  00030	8b 55 f8	 mov	 edx, DWORD PTR _j$[ebp]
  00033	52		 push	 edx
  00034	8b 45 f4	 mov	 eax, DWORD PTR _i$[ebp]
  00037	50		 push	 eax
  00038	68 00 00 00 00	 push	 OFFSET $SG7336
  0003d	e8 00 00 00 00	 call	 _printf
  00042	83 c4 14	 add	 esp, 20			; 00000014H

; 12   : }

  00045	33 c0		 xor	 eax, eax
  00047	8b e5		 mov	 esp, ebp
  00049	5d		 pop	 ebp
  0004a	c3		 ret	 0
_main	ENDP
_TEXT	ENDS
; Function compile flags: /Odtp
; File c:\program files (x86)\windows kits\10\include\10.0.16299.0\ucrt\stdio.h
;	COMDAT _printf
_TEXT	SEGMENT
__Result$ = -8						; size = 4
__ArgList$ = -4						; size = 4
__Format$ = 8						; size = 4
_printf	PROC						; COMDAT

; 952  :     {

  00000	55		 push	 ebp
  00001	8b ec		 mov	 ebp, esp
  00003	83 ec 08	 sub	 esp, 8

; 953  :         int _Result;
; 954  :         va_list _ArgList;
; 955  :         __crt_va_start(_ArgList, _Format);

  00006	8d 45 0c	 lea	 eax, DWORD PTR __Format$[ebp+4]
  00009	89 45 fc	 mov	 DWORD PTR __ArgList$[ebp], eax

; 956  :         _Result = _vfprintf_l(stdout, _Format, NULL, _ArgList);

  0000c	8b 4d fc	 mov	 ecx, DWORD PTR __ArgList$[ebp]
  0000f	51		 push	 ecx
  00010	6a 00		 push	 0
  00012	8b 55 08	 mov	 edx, DWORD PTR __Format$[ebp]
  00015	52		 push	 edx
  00016	6a 01		 push	 1
  00018	e8 00 00 00 00	 call	 ___acrt_iob_func
  0001d	83 c4 04	 add	 esp, 4
  00020	50		 push	 eax
  00021	e8 00 00 00 00	 call	 __vfprintf_l
  00026	83 c4 10	 add	 esp, 16			; 00000010H
  00029	89 45 f8	 mov	 DWORD PTR __Result$[ebp], eax

; 957  :         __crt_va_end(_ArgList);

  0002c	c7 45 fc 00 00
	00 00		 mov	 DWORD PTR __ArgList$[ebp], 0

; 958  :         return _Result;

  00033	8b 45 f8	 mov	 eax, DWORD PTR __Result$[ebp]

; 959  :     }

  00036	8b e5		 mov	 esp, ebp
  00038	5d		 pop	 ebp
  00039	c3		 ret	 0
_printf	ENDP
_TEXT	ENDS
; Function compile flags: /Odtp
; File c:\program files (x86)\windows kits\10\include\10.0.16299.0\ucrt\stdio.h
;	COMDAT __vfprintf_l
_TEXT	SEGMENT
__Stream$ = 8						; size = 4
__Format$ = 12						; size = 4
__Locale$ = 16						; size = 4
__ArgList$ = 20						; size = 4
__vfprintf_l PROC					; COMDAT

; 640  :     {

  00000	55		 push	 ebp
  00001	8b ec		 mov	 ebp, esp

; 641  :         return __stdio_common_vfprintf(_CRT_INTERNAL_LOCAL_PRINTF_OPTIONS, _Stream, _Format, _Locale, _ArgList);

  00003	8b 45 14	 mov	 eax, DWORD PTR __ArgList$[ebp]
  00006	50		 push	 eax
  00007	8b 4d 10	 mov	 ecx, DWORD PTR __Locale$[ebp]
  0000a	51		 push	 ecx
  0000b	8b 55 0c	 mov	 edx, DWORD PTR __Format$[ebp]
  0000e	52		 push	 edx
  0000f	8b 45 08	 mov	 eax, DWORD PTR __Stream$[ebp]
  00012	50		 push	 eax
  00013	e8 00 00 00 00	 call	 ___local_stdio_printf_options
  00018	8b 48 04	 mov	 ecx, DWORD PTR [eax+4]
  0001b	51		 push	 ecx
  0001c	8b 10		 mov	 edx, DWORD PTR [eax]
  0001e	52		 push	 edx
  0001f	e8 00 00 00 00	 call	 ___stdio_common_vfprintf
  00024	83 c4 18	 add	 esp, 24			; 00000018H

; 642  :     }

  00027	5d		 pop	 ebp
  00028	c3		 ret	 0
__vfprintf_l ENDP
_TEXT	ENDS
; Function compile flags: /Odtp
; File c:\program files (x86)\windows kits\10\include\10.0.16299.0\ucrt\corecrt_stdio_config.h
;	COMDAT ___local_stdio_printf_options
_TEXT	SEGMENT
___local_stdio_printf_options PROC			; COMDAT

; 85   :     {

  00000	55		 push	 ebp
  00001	8b ec		 mov	 ebp, esp

; 86   :         static unsigned __int64 _OptionsStorage;
; 87   :         return &_OptionsStorage;

  00003	b8 00 00 00 00	 mov	 eax, OFFSET ?_OptionsStorage@?1??__local_stdio_printf_options@@9@9 ; `__local_stdio_printf_options'::`2'::_OptionsStorage

; 88   :     }

  00008	5d		 pop	 ebp
  00009	c3		 ret	 0
___local_stdio_printf_options ENDP
_TEXT	ENDS
END
