; Listing generated by Microsoft (R) Optimizing Compiler Version 19.12.25834.0 

	TITLE	c:\K-State\cis450\Programs\MemoryTest\Arrays\array1.c
	.686P
	.XMM
	include listing.inc
	.model	flat

INCLUDELIB LIBCMT
INCLUDELIB OLDNAMES

PUBLIC	_main
_BSS	SEGMENT
_x	DD	064H DUP (?)
_BSS	ENDS
; Function compile flags: /Odtp
; File c:\k-state\cis450\programs\memorytest\arrays\array1.c
_TEXT	SEGMENT
_i$1 = -4						; size = 4
_main	PROC

; 6    : {

  00000	55		 push	 ebp
  00001	8b ec		 mov	 ebp, esp
  00003	51		 push	 ecx

; 7    : 	for (int i = 0; i < 100; i++) x[i] = i * 10;

  00004	c7 45 fc 00 00
	00 00		 mov	 DWORD PTR _i$1[ebp], 0
  0000b	eb 09		 jmp	 SHORT $LN4@main
$LN2@main:
  0000d	8b 45 fc	 mov	 eax, DWORD PTR _i$1[ebp]
  00010	83 c0 01	 add	 eax, 1
  00013	89 45 fc	 mov	 DWORD PTR _i$1[ebp], eax
$LN4@main:
  00016	83 7d fc 64	 cmp	 DWORD PTR _i$1[ebp], 100 ; 00000064H
  0001a	7d 10		 jge	 SHORT $LN1@main
  0001c	6b 4d fc 0a	 imul	 ecx, DWORD PTR _i$1[ebp], 10
  00020	8b 55 fc	 mov	 edx, DWORD PTR _i$1[ebp]
  00023	89 0c 95 00 00
	00 00		 mov	 DWORD PTR _x[edx*4], ecx
  0002a	eb e1		 jmp	 SHORT $LN2@main
$LN1@main:

; 8    : }

  0002c	33 c0		 xor	 eax, eax
  0002e	8b e5		 mov	 esp, ebp
  00030	5d		 pop	 ebp
  00031	c3		 ret	 0
_main	ENDP
_TEXT	ENDS
END
